target datalayout = "e-m:e-p270:32:32-p271:32:32-p272:64:64-i64:64-i128:128-f80:128-n8:16:32:64-S128"
target triple = "x86_64-pc-linux-gnu"

%struct._zend_compiler_globals = type { %struct._zend_stack, ptr, ptr, i32, ptr, ptr, ptr, ptr, i8, i8, i8, i8, i8, %struct._zend_llist, ptr, i8, i8, i8, i8, ptr, i32, i32, %struct._zend_oparray_context, %struct._zend_file_context, ptr, %struct._zend_array, ptr, i64, i8, i8, i8, ptr, ptr, %struct._zend_stack, ptr, i32, ptr, ptr, i64, i64, ptr, ptr, ptr, ptr, i32, %struct._zend_stack }
%struct._zend_llist = type { ptr, ptr, i64, i64, ptr, i8, ptr }
%struct._zend_oparray_context = type { i32, i32, i32, i32, i32, i32, i32, ptr, ptr, i8 }
%struct._zend_file_context = type { %struct._zend_declarables, ptr, i8, i8, ptr, ptr, ptr, %struct._zend_array }
%struct._zend_declarables = type { i64 }
%struct._zend_array = type { %struct._zend_refcounted_h, %union.anon.0, i32, %union.anon.1, i32, i32, i32, i32, i64, ptr }
%struct._zend_refcounted_h = type { i32, %union.anon }
%union.anon = type { i32 }
%union.anon.0 = type { i32 }
%union.anon.1 = type { ptr }
%struct._zend_stack = type { i32, i32, i32, ptr }
%struct._zend_op_array = type { i8, [3 x i8], i32, ptr, ptr, ptr, i32, i32, ptr, ptr, ptr, ptr, i32, i32, i32, i32, ptr, ptr, ptr, ptr, ptr, i32, i32, ptr, ptr, ptr, i32, i32, i32, i32, ptr, ptr, [6 x ptr] }
%struct._zend_arena = type { ptr, ptr, ptr }

@compiler_globals = external global %struct._zend_compiler_globals, align 8
@zend_ast_process = external global ptr, align 8

; Function Attrs: nounwind uwtable
define internal ptr @zend_compile(i32 noundef %0) #0 {
  %2 = alloca ptr, align 8
  %3 = alloca ptr, align 8
  %4 = alloca i64, align 8
  %5 = alloca ptr, align 8
  %6 = alloca i32, align 4
  %7 = alloca ptr, align 8
  %8 = alloca i8, align 1
  %9 = alloca i32, align 4
  %10 = alloca %struct._zend_file_context, align 8
  %11 = alloca %struct._zend_oparray_context, align 8
  %12 = alloca ptr, align 8
  store i32 %0, ptr %6, align 4
  store ptr null, ptr %7, align 8
  %13 = load i8, ptr getelementptr inbounds (%struct._zend_compiler_globals, ptr @compiler_globals, i32 0, i32 9), align 1
  %14 = trunc i8 %13 to i1
  %15 = zext i1 %14 to i8
  store i8 %15, ptr %8, align 1
  store i8 1, ptr getelementptr inbounds (%struct._zend_compiler_globals, ptr @compiler_globals, i32 0, i32 9), align 1
  store ptr null, ptr getelementptr inbounds (%struct._zend_compiler_globals, ptr @compiler_globals, i32 0, i32 31), align 8
  store i64 32768, ptr %4, align 8
  %16 = load i64, ptr %4, align 8
  %17 = call i1 @llvm.is.constant.i64(i64 %16)
  br i1 %17, label %18, label %239

18:                                               ; preds = %1
  %19 = load i64, ptr %4, align 8
  %20 = icmp ule i64 %19, 8
  br i1 %20, label %21, label %23

21:                                               ; preds = %18
  %22 = call noalias ptr @_emalloc_8() #12
  br label %237

23:                                               ; preds = %18
  %24 = load i64, ptr %4, align 8
  %25 = icmp ule i64 %24, 16
  br i1 %25, label %26, label %28

26:                                               ; preds = %23
  %27 = call noalias ptr @_emalloc_16() #12
  br label %235

28:                                               ; preds = %23
  %29 = load i64, ptr %4, align 8
  %30 = icmp ule i64 %29, 24
  br i1 %30, label %31, label %33

31:                                               ; preds = %28
  %32 = call noalias ptr @_emalloc_24() #12
  br label %233

33:                                               ; preds = %28
  %34 = load i64, ptr %4, align 8
  %35 = icmp ule i64 %34, 32
  br i1 %35, label %36, label %38

36:                                               ; preds = %33
  %37 = call noalias ptr @_emalloc_32() #12
  br label %231

38:                                               ; preds = %33
  %39 = load i64, ptr %4, align 8
  %40 = icmp ule i64 %39, 40
  br i1 %40, label %41, label %43

41:                                               ; preds = %38
  %42 = call noalias ptr @_emalloc_40() #12
  br label %229

43:                                               ; preds = %38
  %44 = load i64, ptr %4, align 8
  %45 = icmp ule i64 %44, 48
  br i1 %45, label %46, label %48

46:                                               ; preds = %43
  %47 = call noalias ptr @_emalloc_48() #12
  br label %227

48:                                               ; preds = %43
  %49 = load i64, ptr %4, align 8
  %50 = icmp ule i64 %49, 56
  br i1 %50, label %51, label %53

51:                                               ; preds = %48
  %52 = call noalias ptr @_emalloc_56() #12
  br label %225

53:                                               ; preds = %48
  %54 = load i64, ptr %4, align 8
  %55 = icmp ule i64 %54, 64
  br i1 %55, label %56, label %58

56:                                               ; preds = %53
  %57 = call noalias ptr @_emalloc_64() #12
  br label %223

58:                                               ; preds = %53
  %59 = load i64, ptr %4, align 8
  %60 = icmp ule i64 %59, 80
  br i1 %60, label %61, label %63

61:                                               ; preds = %58
  %62 = call noalias ptr @_emalloc_80() #12
  br label %221

63:                                               ; preds = %58
  %64 = load i64, ptr %4, align 8
  %65 = icmp ule i64 %64, 96
  br i1 %65, label %66, label %68

66:                                               ; preds = %63
  %67 = call noalias ptr @_emalloc_96() #12
  br label %219

68:                                               ; preds = %63
  %69 = load i64, ptr %4, align 8
  %70 = icmp ule i64 %69, 112
  br i1 %70, label %71, label %73

71:                                               ; preds = %68
  %72 = call noalias ptr @_emalloc_112() #12
  br label %217

73:                                               ; preds = %68
  %74 = load i64, ptr %4, align 8
  %75 = icmp ule i64 %74, 128
  br i1 %75, label %76, label %78

76:                                               ; preds = %73
  %77 = call noalias ptr @_emalloc_128() #12
  br label %215

78:                                               ; preds = %73
  %79 = load i64, ptr %4, align 8
  %80 = icmp ule i64 %79, 160
  br i1 %80, label %81, label %83

81:                                               ; preds = %78
  %82 = call noalias ptr @_emalloc_160() #12
  br label %213

83:                                               ; preds = %78
  %84 = load i64, ptr %4, align 8
  %85 = icmp ule i64 %84, 192
  br i1 %85, label %86, label %88

86:                                               ; preds = %83
  %87 = call noalias ptr @_emalloc_192() #12
  br label %211

88:                                               ; preds = %83
  %89 = load i64, ptr %4, align 8
  %90 = icmp ule i64 %89, 224
  br i1 %90, label %91, label %93

91:                                               ; preds = %88
  %92 = call noalias ptr @_emalloc_224() #12
  br label %209

93:                                               ; preds = %88
  %94 = load i64, ptr %4, align 8
  %95 = icmp ule i64 %94, 256
  br i1 %95, label %96, label %98

96:                                               ; preds = %93
  %97 = call noalias ptr @_emalloc_256() #12
  br label %207

98:                                               ; preds = %93
  %99 = load i64, ptr %4, align 8
  %100 = icmp ule i64 %99, 320
  br i1 %100, label %101, label %103

101:                                              ; preds = %98
  %102 = call noalias ptr @_emalloc_320() #12
  br label %205

103:                                              ; preds = %98
  %104 = load i64, ptr %4, align 8
  %105 = icmp ule i64 %104, 384
  br i1 %105, label %106, label %108

106:                                              ; preds = %103
  %107 = call noalias ptr @_emalloc_384() #12
  br label %203

108:                                              ; preds = %103
  %109 = load i64, ptr %4, align 8
  %110 = icmp ule i64 %109, 448
  br i1 %110, label %111, label %113

111:                                              ; preds = %108
  %112 = call noalias ptr @_emalloc_448() #12
  br label %201

113:                                              ; preds = %108
  %114 = load i64, ptr %4, align 8
  %115 = icmp ule i64 %114, 512
  br i1 %115, label %116, label %118

116:                                              ; preds = %113
  %117 = call noalias ptr @_emalloc_512() #12
  br label %199

118:                                              ; preds = %113
  %119 = load i64, ptr %4, align 8
  %120 = icmp ule i64 %119, 640
  br i1 %120, label %121, label %123

121:                                              ; preds = %118
  %122 = call noalias ptr @_emalloc_640() #12
  br label %197

123:                                              ; preds = %118
  %124 = load i64, ptr %4, align 8
  %125 = icmp ule i64 %124, 768
  br i1 %125, label %126, label %128

126:                                              ; preds = %123
  %127 = call noalias ptr @_emalloc_768() #12
  br label %195

128:                                              ; preds = %123
  %129 = load i64, ptr %4, align 8
  %130 = icmp ule i64 %129, 896
  br i1 %130, label %131, label %133

131:                                              ; preds = %128
  %132 = call noalias ptr @_emalloc_896() #12
  br label %193

133:                                              ; preds = %128
  %134 = load i64, ptr %4, align 8
  %135 = icmp ule i64 %134, 1024
  br i1 %135, label %136, label %138

136:                                              ; preds = %133
  %137 = call noalias ptr @_emalloc_1024() #12
  br label %191

138:                                              ; preds = %133
  %139 = load i64, ptr %4, align 8
  %140 = icmp ule i64 %139, 1280
  br i1 %140, label %141, label %143

141:                                              ; preds = %138
  %142 = call noalias ptr @_emalloc_1280() #12
  br label %189

143:                                              ; preds = %138
  %144 = load i64, ptr %4, align 8
  %145 = icmp ule i64 %144, 1536
  br i1 %145, label %146, label %148

146:                                              ; preds = %143
  %147 = call noalias ptr @_emalloc_1536() #12
  br label %187

148:                                              ; preds = %143
  %149 = load i64, ptr %4, align 8
  %150 = icmp ule i64 %149, 1792
  br i1 %150, label %151, label %153

151:                                              ; preds = %148
  %152 = call noalias ptr @_emalloc_1792() #12
  br label %185

153:                                              ; preds = %148
  %154 = load i64, ptr %4, align 8
  %155 = icmp ule i64 %154, 2048
  br i1 %155, label %156, label %158

156:                                              ; preds = %153
  %157 = call noalias ptr @_emalloc_2048() #12
  br label %183

158:                                              ; preds = %153
  %159 = load i64, ptr %4, align 8
  %160 = icmp ule i64 %159, 2560
  br i1 %160, label %161, label %163

161:                                              ; preds = %158
  %162 = call noalias ptr @_emalloc_2560() #12
  br label %181

163:                                              ; preds = %158
  %164 = load i64, ptr %4, align 8
  %165 = icmp ule i64 %164, 3072
  br i1 %165, label %166, label %168

166:                                              ; preds = %163
  %167 = call noalias ptr @_emalloc_3072() #12
  br label %179

168:                                              ; preds = %163
  %169 = load i64, ptr %4, align 8
  %170 = icmp ule i64 %169, 2093056
  br i1 %170, label %171, label %174

171:                                              ; preds = %168
  %172 = load i64, ptr %4, align 8
  %173 = call noalias ptr @_emalloc_large(i64 noundef %172) #13
  br label %177

174:                                              ; preds = %168
  %175 = load i64, ptr %4, align 8
  %176 = call noalias ptr @_emalloc_huge(i64 noundef %175) #13
  br label %177

177:                                              ; preds = %174, %171
  %178 = phi ptr [ %173, %171 ], [ %176, %174 ]
  br label %179

179:                                              ; preds = %177, %166
  %180 = phi ptr [ %167, %166 ], [ %178, %177 ]
  br label %181

181:                                              ; preds = %179, %161
  %182 = phi ptr [ %162, %161 ], [ %180, %179 ]
  br label %183

183:                                              ; preds = %181, %156
  %184 = phi ptr [ %157, %156 ], [ %182, %181 ]
  br label %185

185:                                              ; preds = %183, %151
  %186 = phi ptr [ %152, %151 ], [ %184, %183 ]
  br label %187

187:                                              ; preds = %185, %146
  %188 = phi ptr [ %147, %146 ], [ %186, %185 ]
  br label %189

189:                                              ; preds = %187, %141
  %190 = phi ptr [ %142, %141 ], [ %188, %187 ]
  br label %191

191:                                              ; preds = %189, %136
  %192 = phi ptr [ %137, %136 ], [ %190, %189 ]
  br label %193

193:                                              ; preds = %191, %131
  %194 = phi ptr [ %132, %131 ], [ %192, %191 ]
  br label %195

195:                                              ; preds = %193, %126
  %196 = phi ptr [ %127, %126 ], [ %194, %193 ]
  br label %197

197:                                              ; preds = %195, %121
  %198 = phi ptr [ %122, %121 ], [ %196, %195 ]
  br label %199

199:                                              ; preds = %197, %116
  %200 = phi ptr [ %117, %116 ], [ %198, %197 ]
  br label %201

201:                                              ; preds = %199, %111
  %202 = phi ptr [ %112, %111 ], [ %200, %199 ]
  br label %203

203:                                              ; preds = %201, %106
  %204 = phi ptr [ %107, %106 ], [ %202, %201 ]
  br label %205

205:                                              ; preds = %203, %101
  %206 = phi ptr [ %102, %101 ], [ %204, %203 ]
  br label %207

207:                                              ; preds = %205, %96
  %208 = phi ptr [ %97, %96 ], [ %206, %205 ]
  br label %209

209:                                              ; preds = %207, %91
  %210 = phi ptr [ %92, %91 ], [ %208, %207 ]
  br label %211

211:                                              ; preds = %209, %86
  %212 = phi ptr [ %87, %86 ], [ %210, %209 ]
  br label %213

213:                                              ; preds = %211, %81
  %214 = phi ptr [ %82, %81 ], [ %212, %211 ]
  br label %215

215:                                              ; preds = %213, %76
  %216 = phi ptr [ %77, %76 ], [ %214, %213 ]
  br label %217

217:                                              ; preds = %215, %71
  %218 = phi ptr [ %72, %71 ], [ %216, %215 ]
  br label %219

219:                                              ; preds = %217, %66
  %220 = phi ptr [ %67, %66 ], [ %218, %217 ]
  br label %221

221:                                              ; preds = %219, %61
  %222 = phi ptr [ %62, %61 ], [ %220, %219 ]
  br label %223

223:                                              ; preds = %221, %56
  %224 = phi ptr [ %57, %56 ], [ %222, %221 ]
  br label %225

225:                                              ; preds = %223, %51
  %226 = phi ptr [ %52, %51 ], [ %224, %223 ]
  br label %227

227:                                              ; preds = %225, %46
  %228 = phi ptr [ %47, %46 ], [ %226, %225 ]
  br label %229

229:                                              ; preds = %227, %41
  %230 = phi ptr [ %42, %41 ], [ %228, %227 ]
  br label %231

231:                                              ; preds = %229, %36
  %232 = phi ptr [ %37, %36 ], [ %230, %229 ]
  br label %233

233:                                              ; preds = %231, %31
  %234 = phi ptr [ %32, %31 ], [ %232, %231 ]
  br label %235

235:                                              ; preds = %233, %26
  %236 = phi ptr [ %27, %26 ], [ %234, %233 ]
  br label %237

237:                                              ; preds = %235, %21
  %238 = phi ptr [ %22, %21 ], [ %236, %235 ]
  br label %242

239:                                              ; preds = %1
  %240 = load i64, ptr %4, align 8
  %241 = call noalias ptr @_emalloc(i64 noundef %240) #13
  br label %242

242:                                              ; preds = %239, %237
  %243 = phi ptr [ %238, %237 ], [ %241, %239 ]
  store ptr %243, ptr %5, align 8
  %244 = load ptr, ptr %5, align 8
  %245 = getelementptr inbounds i8, ptr %244, i64 24
  %246 = load ptr, ptr %5, align 8
  store ptr %245, ptr %246, align 8
  %247 = load ptr, ptr %5, align 8
  %248 = load i64, ptr %4, align 8
  %249 = getelementptr inbounds i8, ptr %247, i64 %248
  %250 = load ptr, ptr %5, align 8
  %251 = getelementptr inbounds %struct._zend_arena, ptr %250, i32 0, i32 1
  store ptr %249, ptr %251, align 8
  %252 = load ptr, ptr %5, align 8
  %253 = getelementptr inbounds %struct._zend_arena, ptr %252, i32 0, i32 2
  store ptr null, ptr %253, align 8
  %254 = load ptr, ptr %5, align 8
  store ptr %254, ptr getelementptr inbounds (%struct._zend_compiler_globals, ptr @compiler_globals, i32 0, i32 32), align 8
  %255 = call i32 @zendparse()
  %256 = icmp ne i32 %255, 0
  br i1 %256, label %286, label %257

257:                                              ; preds = %242
  %258 = load i32, ptr getelementptr inbounds (%struct._zend_compiler_globals, ptr @compiler_globals, i32 0, i32 3), align 8
  store i32 %258, ptr %9, align 4
  %259 = load ptr, ptr getelementptr inbounds (%struct._zend_compiler_globals, ptr @compiler_globals, i32 0, i32 4), align 8
  store ptr %259, ptr %12, align 8
  %260 = call noalias ptr @_emalloc_256()
  store ptr %260, ptr %7, align 8
  %261 = load ptr, ptr %7, align 8
  %262 = load i32, ptr %6, align 4
  %263 = trunc i32 %262 to i8
  call void @init_op_array(ptr noundef %261, i8 noundef zeroext %263, i32 noundef 64)
  %264 = load ptr, ptr %7, align 8
  store ptr %264, ptr getelementptr inbounds (%struct._zend_compiler_globals, ptr @compiler_globals, i32 0, i32 4), align 8
  %265 = load ptr, ptr %7, align 8
  %266 = getelementptr inbounds %struct._zend_op_array, ptr %265, i32 0, i32 2
  %267 = load i32, ptr %266, align 4
  %268 = or i32 %267, 67108864
  store i32 %268, ptr %266, align 4
  %269 = load ptr, ptr @zend_ast_process, align 8
  %270 = icmp ne ptr %269, null
  br i1 %270, label %271, label %274

271:                                              ; preds = %257
  %272 = load ptr, ptr @zend_ast_process, align 8
  %273 = load ptr, ptr getelementptr inbounds (%struct._zend_compiler_globals, ptr @compiler_globals, i32 0, i32 31), align 8
  call void %272(ptr noundef %273)
  br label %274

274:                                              ; preds = %271, %257
  call void @zend_file_context_begin(ptr noundef %10)
  call void @zend_oparray_context_begin(ptr noundef %11)
  %275 = load ptr, ptr getelementptr inbounds (%struct._zend_compiler_globals, ptr @compiler_globals, i32 0, i32 31), align 8
  call void @zend_compile_top_stmt(ptr noundef %275)
  %276 = load i32, ptr %9, align 4
  store i32 %276, ptr getelementptr inbounds (%struct._zend_compiler_globals, ptr @compiler_globals, i32 0, i32 3), align 8
  %277 = load i32, ptr %6, align 4
  %278 = icmp eq i32 %277, 2
  call void @zend_emit_final_return(i1 noundef zeroext %278)
  %279 = load ptr, ptr %7, align 8
  %280 = getelementptr inbounds %struct._zend_op_array, ptr %279, i32 0, i32 26
  store i32 1, ptr %280, align 8
  %281 = load i32, ptr %9, align 4
  %282 = load ptr, ptr %7, align 8
  %283 = getelementptr inbounds %struct._zend_op_array, ptr %282, i32 0, i32 27
  store i32 %281, ptr %283, align 4
  %284 = load ptr, ptr %7, align 8
  call void @pass_two(ptr noundef %284)
  call void @zend_oparray_context_end(ptr noundef %11)
  call void @zend_file_context_end(ptr noundef %10)
  %285 = load ptr, ptr %12, align 8
  store ptr %285, ptr getelementptr inbounds (%struct._zend_compiler_globals, ptr @compiler_globals, i32 0, i32 4), align 8
  br label %286

286:                                              ; preds = %274, %242
  %287 = load ptr, ptr getelementptr inbounds (%struct._zend_compiler_globals, ptr @compiler_globals, i32 0, i32 31), align 8
  call void @zend_ast_destroy(ptr noundef %287)
  %288 = load ptr, ptr getelementptr inbounds (%struct._zend_compiler_globals, ptr @compiler_globals, i32 0, i32 32), align 8
  store ptr %288, ptr %2, align 8
  br label %289

289:                                              ; preds = %289, %286
  %290 = load ptr, ptr %2, align 8
  %291 = getelementptr inbounds %struct._zend_arena, ptr %290, i32 0, i32 2
  %292 = load ptr, ptr %291, align 8
  store ptr %292, ptr %3, align 8
  %293 = load ptr, ptr %2, align 8
  call void @_efree(ptr noundef %293) #12
  %294 = load ptr, ptr %3, align 8
  store ptr %294, ptr %2, align 8
  %295 = load ptr, ptr %2, align 8
  %296 = icmp ne ptr %295, null
  br i1 %296, label %289, label %297

297:                                              ; preds = %289
  %298 = load i8, ptr %8, align 1
  %299 = trunc i8 %298 to i1
  %300 = zext i1 %299 to i8
  store i8 %300, ptr getelementptr inbounds (%struct._zend_compiler_globals, ptr @compiler_globals, i32 0, i32 9), align 1
  %301 = load ptr, ptr %7, align 8
  ret ptr %301
}