; Function Attrs: nounwind uwtable
define internal fastcc noundef ptr @zend_compile(i32 noundef %0) unnamed_addr #0 {
  %2 = alloca %struct._zend_file_context, align 8
  %3 = alloca %struct._zend_oparray_context, align 8
  %4 = load i8, ptr getelementptr inbounds (%struct._zend_compiler_globals, ptr @compiler_globals, i64 0, i32 9), align 1
  store i8 1, ptr getelementptr inbounds (%struct._zend_compiler_globals, ptr @compiler_globals, i64 0, i32 9), align 1
  store ptr null, ptr getelementptr inbounds (%struct._zend_compiler_globals, ptr @compiler_globals, i64 0, i32 31), align 8
  %5 = tail call noalias dereferenceable_or_null(32768) ptr @_emalloc_large(i64 noundef 32768) #17
  %6 = getelementptr inbounds i8, ptr %5, i64 24
  store ptr %6, ptr %5, align 8
  %7 = getelementptr inbounds i8, ptr %5, i64 32768
  %8 = getelementptr inbounds i8, ptr %5, i64 8
  store ptr %7, ptr %8, align 8
  %9 = getelementptr inbounds i8, ptr %5, i64 16
  store ptr null, ptr %9, align 8
  store ptr %5, ptr getelementptr inbounds (%struct._zend_compiler_globals, ptr @compiler_globals, i64 0, i32 32), align 8
  %10 = tail call i32 @zendparse() #16
  %.not = icmp eq i32 %10, 0
  br i1 %.not, label %11, label %27

11:                                               ; preds = %1
  %12 = load i32, ptr getelementptr inbounds (%struct._zend_compiler_globals, ptr @compiler_globals, i64 0, i32 3), align 8
  %13 = load ptr, ptr getelementptr inbounds (%struct._zend_compiler_globals, ptr @compiler_globals, i64 0, i32 4), align 8
  %14 = tail call noalias ptr @_emalloc_256() #16
  %15 = trunc i32 %0 to i8
  tail call void @init_op_array(ptr noundef %14, i8 noundef zeroext %15, i32 noundef 64) #16
  store ptr %14, ptr getelementptr inbounds (%struct._zend_compiler_globals, ptr @compiler_globals, i64 0, i32 4), align 8
  %16 = getelementptr inbounds i8, ptr %14, i64 4
  %17 = load i32, ptr %16, align 4
  %18 = or i32 %17, 67108864
  store i32 %18, ptr %16, align 4
  %19 = load ptr, ptr @zend_ast_process, align 8
  %.not60 = icmp eq ptr %19, null
  br i1 %.not60, label %22, label %20

20:                                               ; preds = %11
  %21 = load ptr, ptr getelementptr inbounds (%struct._zend_compiler_globals, ptr @compiler_globals, i64 0, i32 31), align 8
  tail call void %19(ptr noundef %21) #16
  br label %22

22:                                               ; preds = %20, %11
  call void @zend_file_context_begin(ptr noundef nonnull %2) #16
  call void @zend_oparray_context_begin(ptr noundef nonnull %3) #16
  %23 = load ptr, ptr getelementptr inbounds (%struct._zend_compiler_globals, ptr @compiler_globals, i64 0, i32 31), align 8
  call void @zend_compile_top_stmt(ptr noundef %23) #16
  store i32 %12, ptr getelementptr inbounds (%struct._zend_compiler_globals, ptr @compiler_globals, i64 0, i32 3), align 8
  %24 = icmp eq i32 %0, 2
  call void @zend_emit_final_return(i1 noundef zeroext %24) #16
  %25 = getelementptr inbounds i8, ptr %14, i64 160
  store i32 1, ptr %25, align 8
  %26 = getelementptr inbounds i8, ptr %14, i64 164
  store i32 %12, ptr %26, align 4
  call void @pass_two(ptr noundef nonnull %14) #16
  call void @zend_oparray_context_end(ptr noundef nonnull %3) #16
  call void @zend_file_context_end(ptr noundef nonnull %2) #16
  store ptr %13, ptr getelementptr inbounds (%struct._zend_compiler_globals, ptr @compiler_globals, i64 0, i32 4), align 8
  br label %27

27:                                               ; preds = %22, %1
  %.058 = phi ptr [ null, %1 ], [ %14, %22 ]
  %28 = load ptr, ptr getelementptr inbounds (%struct._zend_compiler_globals, ptr @compiler_globals, i64 0, i32 31), align 8
  call void @zend_ast_destroy(ptr noundef %28) #16
  %29 = load ptr, ptr getelementptr inbounds (%struct._zend_compiler_globals, ptr @compiler_globals, i64 0, i32 32), align 8
  br label %30

30:                                               ; preds = %30, %27
  %.0 = phi ptr [ %29, %27 ], [ %32, %30 ]
  %31 = getelementptr inbounds i8, ptr %.0, i64 16
  %32 = load ptr, ptr %31, align 8
  call void @_efree(ptr noundef %.0) #16
  %.not61 = icmp eq ptr %32, null
  br i1 %.not61, label %33, label %30

33:                                               ; preds = %30
  %34 = and i8 %4, 1
  store i8 %34, ptr getelementptr inbounds (%struct._zend_compiler_globals, ptr @compiler_globals, i64 0, i32 9), align 1
  ret ptr %.058
}